; Function Attrs: mustprogress nofree norecurse nosync nounwind willreturn memory(argmem: readwrite) uwtable
define internal range(i32 -1, 1) i32 @get_only_remote(ptr noundef readonly captures(none) %0, ptr noundef captures(none) %1) #13 {
  %3 = load ptr, ptr %1, align 8, !tbaa !14
  %.not = icmp eq ptr %3, null
  br i1 %.not, label %4, label %7

4:                                                ; preds = %2
  %5 = getelementptr inbounds nuw i8, ptr %0, i64 16
  %6 = load ptr, ptr %5, align 8, !tbaa !54
  store ptr %6, ptr %1, align 8, !tbaa !14
  br label %7

7:                                                ; preds = %2, %4
  %.0 = phi i32 [ 0, %4 ], [ -1, %2 ]
  ret i32 %.0
}